target datalayout = "e-m:e-p270:32:32-p271:32:32-p272:64:64-i64:64-i128:128-f80:128-n8:16:32:64-S128"
target triple = "x86_64-pc-linux-gnu"

%"class.gmx::ImdSession::Impl" = type { i8, ptr, i32, i32, ptr, ptr, i32, ptr, ptr, ptr, ptr, ptr, i32, i32, i32, i32, ptr, ptr, i32, i8, i8, i8, i8, i8, ptr, i32, ptr, ptr, i32, ptr, ptr, ptr, ptr, ptr, %struct.t_block, i32, ptr, ptr, ptr, ptr, ptr, ptr }
%struct.t_block = type { i32, ptr, i32 }

; Function Attrs: inlinehint mustprogress nounwind uwtable
define internal noundef zeroext i1 @_ZN3gmxL12rvecs_differEPKfS1_(ptr noundef %0, ptr noundef %1) #6 {
  %3 = alloca i1, align 1
  %4 = alloca ptr, align 8
  %5 = alloca ptr, align 8
  %6 = alloca i32, align 4
  %7 = alloca i32, align 4
  store ptr %0, ptr %4, align 8, !tbaa !324
  store ptr %1, ptr %5, align 8, !tbaa !324
  call void @llvm.lifetime.start.p0(i64 4, ptr %6) #17
  store i32 0, ptr %6, align 4, !tbaa !70
  br label %8

8:                                                ; preds = %26, %2
  %9 = load i32, ptr %6, align 4, !tbaa !70
  %10 = icmp slt i32 %9, 3
  br i1 %10, label %12, label %11

11:                                               ; preds = %8
  store i32 2, ptr %7, align 4
  br label %29

12:                                               ; preds = %8
  %13 = load ptr, ptr %4, align 8, !tbaa !324
  %14 = load i32, ptr %6, align 4, !tbaa !70
  %15 = sext i32 %14 to i64
  %16 = getelementptr inbounds float, ptr %13, i64 %15
  %17 = load float, ptr %16, align 4, !tbaa !329
  %18 = load ptr, ptr %5, align 8, !tbaa !324
  %19 = load i32, ptr %6, align 4, !tbaa !70
  %20 = sext i32 %19 to i64
  %21 = getelementptr inbounds float, ptr %18, i64 %20
  %22 = load float, ptr %21, align 4, !tbaa !329
  %23 = fcmp une float %17, %22
  br i1 %23, label %24, label %25

24:                                               ; preds = %12
  store i1 true, ptr %3, align 1
  store i32 1, ptr %7, align 4
  br label %29

25:                                               ; preds = %12
  br label %26

26:                                               ; preds = %25
  %27 = load i32, ptr %6, align 4, !tbaa !70
  %28 = add nsw i32 %27, 1
  store i32 %28, ptr %6, align 4, !tbaa !70
  br label %8, !llvm.loop !338

29:                                               ; preds = %24, %11
  call void @llvm.lifetime.end.p0(i64 4, ptr %6) #17
  %30 = load i32, ptr %7, align 4
  switch i32 %30, label %34 [
    i32 2, label %31
    i32 1, label %32
  ]

31:                                               ; preds = %29
  store i1 false, ptr %3, align 1
  br label %32

32:                                               ; preds = %31, %29
  %33 = load i1, ptr %3, align 1
  ret i1 %33

34:                                               ; preds = %29
  unreachable
}

; Function Attrs: mustprogress uwtable
define noundef zeroext i1 @_ZNK3gmx10ImdSession4Impl14bForcesChangedEv(ptr noundef nonnull align 8 dereferenceable(296) %0) #0 align 2 {
  %2 = alloca i1, align 1
  %3 = alloca ptr, align 8
  %4 = alloca i32, align 4
  %5 = alloca i32, align 4
  %6 = alloca i32, align 4
  store ptr %0, ptr %3, align 8, !tbaa !266
  %7 = load ptr, ptr %3, align 8
  %8 = getelementptr inbounds nuw %"class.gmx::ImdSession::Impl", ptr %7, i32 0, i32 28
  %9 = load i32, ptr %8, align 8, !tbaa !328
  %10 = getelementptr inbounds nuw %"class.gmx::ImdSession::Impl", ptr %7, i32 0, i32 35
  %11 = load i32, ptr %10, align 8, !tbaa !333
  %12 = icmp ne i32 %9, %11
  br i1 %12, label %13, label %14

13:                                               ; preds = %1
  store i1 true, ptr %2, align 1
  br label %71

14:                                               ; preds = %1
  call void @llvm.lifetime.start.p0(i64 4, ptr %4) #17
  store i32 0, ptr %4, align 4, !tbaa !70
  br label %15

15:                                               ; preds = %37, %14
  %16 = load i32, ptr %4, align 4, !tbaa !70
  %17 = getelementptr inbounds nuw %"class.gmx::ImdSession::Impl", ptr %7, i32 0, i32 28
  %18 = load i32, ptr %17, align 8, !tbaa !328
  %19 = icmp slt i32 %16, %18
  br i1 %19, label %21, label %20

20:                                               ; preds = %15
  store i32 2, ptr %5, align 4
  br label %40

21:                                               ; preds = %15
  %22 = getelementptr inbounds nuw %"class.gmx::ImdSession::Impl", ptr %7, i32 0, i32 29
  %23 = load ptr, ptr %22, align 8, !tbaa !330
  %24 = load i32, ptr %4, align 4, !tbaa !70
  %25 = sext i32 %24 to i64
  %26 = getelementptr inbounds i32, ptr %23, i64 %25
  %27 = load i32, ptr %26, align 4, !tbaa !70
  %28 = getelementptr inbounds nuw %"class.gmx::ImdSession::Impl", ptr %7, i32 0, i32 36
  %29 = load ptr, ptr %28, align 8, !tbaa !334
  %30 = load i32, ptr %4, align 4, !tbaa !70
  %31 = sext i32 %30 to i64
  %32 = getelementptr inbounds i32, ptr %29, i64 %31
  %33 = load i32, ptr %32, align 4, !tbaa !70
  %34 = icmp ne i32 %27, %33
  br i1 %34, label %35, label %36

35:                                               ; preds = %21
  store i1 true, ptr %2, align 1
  store i32 1, ptr %5, align 4
  br label %40

36:                                               ; preds = %21
  br label %37

37:                                               ; preds = %36
  %38 = load i32, ptr %4, align 4, !tbaa !70
  %39 = add nsw i32 %38, 1
  store i32 %39, ptr %4, align 4, !tbaa !70
  br label %15, !llvm.loop !335

40:                                               ; preds = %35, %20
  call void @llvm.lifetime.end.p0(i64 4, ptr %4) #17
  %41 = load i32, ptr %5, align 4
  switch i32 %41, label %73 [
    i32 2, label %42
    i32 1, label %71
  ]

42:                                               ; preds = %40
  call void @llvm.lifetime.start.p0(i64 4, ptr %6) #17
  store i32 0, ptr %6, align 4, !tbaa !70
  br label %43

43:                                               ; preds = %65, %42
  %44 = load i32, ptr %6, align 4, !tbaa !70
  %45 = getelementptr inbounds nuw %"class.gmx::ImdSession::Impl", ptr %7, i32 0, i32 28
  %46 = load i32, ptr %45, align 8, !tbaa !328
  %47 = icmp slt i32 %44, %46
  br i1 %47, label %49, label %48

48:                                               ; preds = %43
  store i32 5, ptr %5, align 4
  br label %68

49:                                               ; preds = %43
  %50 = getelementptr inbounds nuw %"class.gmx::ImdSession::Impl", ptr %7, i32 0, i32 30
  %51 = load ptr, ptr %50, align 8, !tbaa !331
  %52 = load i32, ptr %6, align 4, !tbaa !70
  %53 = sext i32 %52 to i64
  %54 = getelementptr inbounds [3 x float], ptr %51, i64 %53
  %55 = getelementptr inbounds [3 x float], ptr %54, i64 0, i64 0
  %56 = getelementptr inbounds nuw %"class.gmx::ImdSession::Impl", ptr %7, i32 0, i32 37
  %57 = load ptr, ptr %56, align 8, !tbaa !336
  %58 = load i32, ptr %6, align 4, !tbaa !70
  %59 = sext i32 %58 to i64
  %60 = getelementptr inbounds [3 x float], ptr %57, i64 %59
  %61 = getelementptr inbounds [3 x float], ptr %60, i64 0, i64 0
  %62 = call noundef zeroext i1 @_ZN3gmxL12rvecs_differEPKfS1_(ptr noundef %55, ptr noundef %61)
  br i1 %62, label %63, label %64

63:                                               ; preds = %49
  store i1 true, ptr %2, align 1
  store i32 1, ptr %5, align 4
  br label %68

64:                                               ; preds = %49
  br label %65

65:                                               ; preds = %64
  %66 = load i32, ptr %6, align 4, !tbaa !70
  %67 = add nsw i32 %66, 1
  store i32 %67, ptr %6, align 4, !tbaa !70
  br label %43, !llvm.loop !337

68:                                               ; preds = %63, %48
  call void @llvm.lifetime.end.p0(i64 4, ptr %6) #17
  %69 = load i32, ptr %5, align 4
  switch i32 %69, label %73 [
    i32 5, label %70
    i32 1, label %71
  ]

70:                                               ; preds = %68
  store i1 false, ptr %2, align 1
  br label %71

71:                                               ; preds = %70, %68, %40, %13
  %72 = load i1, ptr %2, align 1
  ret i1 %72

73:                                               ; preds = %68, %40
  unreachable
}