; Function Attrs: mustprogress nofree norecurse nosync nounwind willreturn memory(read, inaccessiblemem: none) uwtable
define noundef zeroext i1 @_ZNK3gmx10ImdSession4Impl14bForcesChangedEv(ptr noundef nonnull readonly align 8 captures(none) dereferenceable(296) %0) local_unnamed_addr #17 align 2 {
  %2 = getelementptr inbounds nuw i8, ptr %0, i64 168
  %3 = load i32, ptr %2, align 8, !tbaa !171
  %4 = getelementptr inbounds nuw i8, ptr %0, i64 240
  %5 = load i32, ptr %4, align 8, !tbaa !177
  %.not = icmp eq i32 %3, %5
  br i1 %.not, label %.preheader22, label %.thread

.preheader22:                                     ; preds = %1
  %6 = icmp sgt i32 %3, 0
  br i1 %6, label %.lr.ph, label %.thread

.lr.ph:                                           ; preds = %.preheader22
  %7 = getelementptr inbounds nuw i8, ptr %0, i64 176
  %8 = load ptr, ptr %7, align 8, !tbaa !172
  %9 = getelementptr inbounds nuw i8, ptr %0, i64 248
  %10 = load ptr, ptr %9, align 8, !tbaa !178
  %wide.trip.count = zext nneg i32 %3 to i64
  br label %16

11:                                               ; preds = %16
  %indvars.iv.next = add nuw nsw i64 %indvars.iv, 1
  %exitcond.not = icmp eq i64 %indvars.iv.next, %wide.trip.count
  br i1 %exitcond.not, label %.lr.ph27, label %16, !llvm.loop !179

.lr.ph27:                                         ; preds = %11
  %12 = getelementptr inbounds nuw i8, ptr %0, i64 184
  %13 = load ptr, ptr %12, align 8, !tbaa !174
  %14 = getelementptr inbounds nuw i8, ptr %0, i64 256
  %15 = load ptr, ptr %14, align 8, !tbaa !180
  %wide.trip.count34 = zext nneg i32 %3 to i64
  br label %21

16:                                               ; preds = %.lr.ph, %11
  %indvars.iv = phi i64 [ 0, %.lr.ph ], [ %indvars.iv.next, %11 ]
  %17 = getelementptr inbounds nuw i32, ptr %8, i64 %indvars.iv
  %18 = load i32, ptr %17, align 4, !tbaa !161
  %19 = getelementptr inbounds nuw i32, ptr %10, i64 %indvars.iv
  %20 = load i32, ptr %19, align 4, !tbaa !161
  %.not15 = icmp eq i32 %18, %20
  br i1 %.not15, label %11, label %.thread

21:                                               ; preds = %_ZN3gmxL12rvecs_differEPKfS1_.exit, %.lr.ph27
  %indvars.iv31 = phi i64 [ 0, %.lr.ph27 ], [ %indvars.iv.next32, %_ZN3gmxL12rvecs_differEPKfS1_.exit ]
  %22 = getelementptr inbounds nuw [3 x float], ptr %13, i64 %indvars.iv31
  %23 = getelementptr inbounds nuw [3 x float], ptr %15, i64 %indvars.iv31
  br label %24

24:                                               ; preds = %24, %21
  %indvars.iv.i = phi i64 [ 0, %21 ], [ %indvars.iv.next.i, %24 ]
  %25 = getelementptr inbounds nuw float, ptr %22, i64 %indvars.iv.i
  %26 = load float, ptr %25, align 4, !tbaa !175
  %27 = getelementptr inbounds nuw float, ptr %23, i64 %indvars.iv.i
  %28 = load float, ptr %27, align 4, !tbaa !175
  %29 = fcmp une float %26, %28
  %indvars.iv.next.i = add nuw nsw i64 %indvars.iv.i, 1
  %exitcond.not.i = icmp eq i64 %indvars.iv.next.i, 3
  %or.cond.i = select i1 %29, i1 true, i1 %exitcond.not.i
  br i1 %or.cond.i, label %_ZN3gmxL12rvecs_differEPKfS1_.exit, label %24, !llvm.loop !181

_ZN3gmxL12rvecs_differEPKfS1_.exit:               ; preds = %24
  %indvars.iv.next32 = add nuw nsw i64 %indvars.iv31, 1
  %exitcond35.not = icmp eq i64 %indvars.iv.next32, %wide.trip.count34
  %or.cond = select i1 %29, i1 true, i1 %exitcond35.not
  br i1 %or.cond, label %.thread, label %21, !llvm.loop !182

.thread:                                          ; preds = %16, %_ZN3gmxL12rvecs_differEPKfS1_.exit, %.preheader22, %1
  %.013 = phi i1 [ true, %1 ], [ false, %.preheader22 ], [ %29, %_ZN3gmxL12rvecs_differEPKfS1_.exit ], [ true, %16 ]
  ret i1 %.013
}